(dp1
S'layout'
p2
(ilayout
Layout
p3
(dp4
S'capsules'
p5
(lp6
(I23
I1
tp7
a(I13
I4
tp8
a(I20
I13
tp9
a(I10
I16
tp10
asS'numGhosts'
p11
I4
sS'food'
p12
(igame
Grid
p13
(dp14
S'CELLS_PER_INT'
p15
I30
sS'width'
p16
I34
sS'data'
p17
(lp18
(lp19
I00
aI00
aI00
aI00
aI00
aI00
aI00
aI00
aI00
aI00
aI00
aI00
aI00
aI00
aI00
aI00
aI00
aI00
aa(lp20
I00
aI00
aI00
aI00
aI00
aI00
aI00
aI00
aI00
aI00
aI00
aI01
aI00
aI00
aI01
aI00
aI01
aI00
aa(lp21
I00
aI00
aI00
aI00
aI00
aI00
aI00
aI00
aI00
aI00
aI00
aI00
aI00
aI00
aI01
aI00
aI01
aI00
aa(lp22
I00
aI00
aI00
aI00
aI00
aI00
aI00
aI00
aI00
aI00
aI00
aI00
aI00
aI00
aI00
aI00
aI00
aI00
aa(lp23
I00
aI00
aI00
aI00
aI00
aI00
aI00
aI01
aI00
aI00
aI00
aI00
aI00
aI01
aI00
aI00
aI01
aI00
aa(lp24
I00
aI00
aI00
aI00
aI00
aI01
aI00
aI00
aI00
aI00
aI00
aI00
aI00
aI00
aI00
aI00
aI01
aI00
aa(lp25
I00
aI00
aI00
aI00
aI00
aI00
aI00
aI00
aI00
aI00
aI00
aI00
aI00
aI01
aI00
aI00
aI00
aI00
aa(lp26
I00
aI01
aI00
aI01
aI00
aI00
aI00
aI01
aI00
aI01
aI00
aI01
aI00
aI00
aI00
aI00
aI00
aI00
aa(lp27
I00
aI00
aI00
aI00
aI00
aI00
aI00
aI00
aI00
aI01
aI00
aI01
aI00
aI00
aI00
aI00
aI01
aI00
aa(lp28
I00
aI00
aI00
aI00
aI00
aI01
aI00
aI00
aI00
aI00
aI00
aI00
aI00
aI00
aI00
aI00
aI00
aI00
aa(lp29
I00
aI01
aI00
aI00
aI00
aI00
aI00
aI00
aI00
aI00
aI00
aI00
aI00
aI00
aI00
aI00
aI00
aI00
aa(lp30
I00
aI01
aI00
aI01
aI00
aI00
aI00
aI00
aI01
aI00
aI01
aI00
aI00
aI00
aI00
aI00
aI00
aI00
aa(lp31
I00
aI00
aI00
aI00
aI00
aI00
aI00
aI00
aI00
aI00
aI00
aI00
aI00
aI00
aI00
aI00
aI01
aI00
aa(lp32
I00
aI01
aI00
aI00
aI00
aI00
aI00
aI01
aI00
aI00
aI01
aI00
aI00
aI00
aI00
aI00
aI01
aI00
aa(lp33
I00
aI00
aI00
aI00
aI00
aI00
aI00
aI00
aI00
aI00
aI00
aI00
aI00
aI00
aI00
aI00
aI00
aI00
aa(lp34
I00
aI00
aI00
aI00
aI00
aI00
aI00
aI00
aI00
aI00
aI00
aI00
aI00
aI00
aI00
aI00
aI00
aI00
aa(lp35
I00
aI00
aI00
aI00
aI00
aI00
aI00
aI00
aI00
aI00
aI00
aI00
aI00
aI00
aI00
aI00
aI00
aI00
aa(lp36
I00
aI00
aI00
aI00
aI00
aI00
aI00
aI00
aI00
aI00
aI00
aI00
aI00
aI00
aI00
aI00
aI00
aI00
aa(lp37
I00
aI00
aI00
aI00
aI00
aI00
aI00
aI00
aI00
aI00
aI00
aI00
aI00
aI00
aI00
aI00
aI00
aI00
aa(lp38
I00
aI00
aI00
aI00
aI00
aI00
aI00
aI00
aI00
aI00
aI00
aI00
aI00
aI00
aI00
aI00
aI00
aI00
aa(lp39
I00
aI01
aI00
aI00
aI00
aI00
aI00
aI01
aI00
aI00
aI01
aI00
aI00
aI00
aI00
aI00
aI01
aI00
aa(lp40
I00
aI01
aI00
aI00
aI00
aI00
aI00
aI00
aI00
aI00
aI00
aI00
aI00
aI00
aI00
aI00
aI00
aI00
aa(lp41
I00
aI00
aI00
aI00
aI00
aI00
aI00
aI01
aI00
aI01
aI00
aI00
aI00
aI00
aI01
aI00
aI01
aI00
aa(lp42
I00
aI00
aI00
aI00
aI00
aI00
aI00
aI00
aI00
aI00
aI00
aI00
aI00
aI00
aI00
aI00
aI01
aI00
aa(lp43
I00
aI00
aI00
aI00
aI00
aI00
aI00
aI00
aI00
aI00
aI00
aI00
aI01
aI00
aI00
aI00
aI00
aI00
aa(lp44
I00
aI01
aI00
aI00
aI00
aI00
aI01
aI00
aI01
aI00
aI00
aI00
aI00
aI00
aI00
aI00
aI00
aI00
aa(lp45
I00
aI00
aI00
aI00
aI00
aI00
aI01
aI00
aI01
aI00
aI01
aI00
aI00
aI00
aI01
aI00
aI01
aI00
aa(lp46
I00
aI00
aI00
aI00
aI01
aI00
aI00
aI00
aI00
aI00
aI00
aI00
aI00
aI00
aI00
aI00
aI00
aI00
aa(lp47
I00
aI01
aI00
aI00
aI00
aI00
aI00
aI00
aI00
aI00
aI00
aI00
aI01
aI00
aI00
aI00
aI00
aI00
aa(lp48
I00
aI01
aI00
aI00
aI01
aI00
aI00
aI00
aI00
aI00
aI01
aI00
aI00
aI00
aI00
aI00
aI00
aI00
aa(lp49
I00
aI00
aI00
aI00
aI00
aI00
aI00
aI00
aI00
aI00
aI00
aI00
aI00
aI00
aI00
aI00
aI00
aI00
aa(lp50
I00
aI01
aI00
aI01
aI00
aI00
aI00
aI00
aI00
aI00
aI00
aI00
aI00
aI00
aI00
aI00
aI00
aI00
aa(lp51
I00
aI01
aI00
aI01
aI00
aI00
aI01
aI00
aI00
aI00
aI00
aI00
aI00
aI00
aI00
aI00
aI00
aI00
aa(lp52
I00
aI00
aI00
aI00
aI00
aI00
aI00
aI00
aI00
aI00
aI00
aI00
aI00
aI00
aI00
aI00
aI00
aI00
aasS'height'
p53
I18
sbsS'agentPositions'
p54
(lp55
(I00
(I1
I2
tp56
tp57
a(I00
(I32
I15
tp58
tp59
a(I00
(I1
I1
tp60
tp61
a(I00
(I32
I16
tp62
tp63
asg53
I18
sg16
I34
sS'walls'
p64
(igame
Grid
p65
(dp66
g15
I30
sg16
I34
sg17
(lp67
(lp68
I01
aI01
aI01
aI01
aI01
aI01
aI01
aI01
aI01
aI01
aI01
aI01
aI01
aI01
aI01
aI01
aI01
aI01
aa(lp69
I01
aI00
aI00
aI00
aI00
aI00
aI01
aI00
aI00
aI01
aI00
aI00
aI00
aI00
aI00
aI00
aI00
aI01
aa(lp70
I01
aI00
aI01
aI00
aI01
aI00
aI00
aI00
aI00
aI00
aI00
aI01
aI00
aI00
aI00
aI01
aI00
aI01
aa(lp71
I01
aI01
aI01
aI00
aI01
aI01
aI01
aI00
aI01
aI01
aI00
aI01
aI01
aI01
aI01
aI01
aI01
aI01
aa(lp72
I01
aI00
aI01
aI00
aI00
aI00
aI00
aI00
aI00
aI01
aI00
aI01
aI00
aI00
aI00
aI01
aI00
aI01
aa(lp73
I01
aI00
aI01
aI00
aI01
aI00
aI01
aI00
aI00
aI00
aI00
aI00
aI00
aI00
aI00
aI01
aI00
aI01
aa(lp74
I01
aI00
aI01
aI01
aI01
aI01
aI01
aI01
aI01
aI01
aI01
aI01
aI01
aI00
aI01
aI01
aI00
aI01
aa(lp75
I01
aI00
aI01
aI00
aI00
aI00
aI00
aI00
aI00
aI00
aI01
aI00
aI00
aI00
aI00
aI01
aI00
aI01
aa(lp76
I01
aI00
aI01
aI01
aI00
aI01
aI01
aI01
aI01
aI00
aI00
aI00
aI00
aI01
aI00
aI01
aI00
aI01
aa(lp77
I01
aI00
aI00
aI00
aI00
aI00
aI00
aI00
aI00
aI00
aI01
aI00
aI00
aI01
aI00
aI01
aI00
aI01
aa(lp78
I01
aI00
aI01
aI01
aI00
aI01
aI01
aI01
aI01
aI01
aI01
aI01
aI00
aI00
aI00
aI01
aI00
aI01
aa(lp79
I01
aI00
aI01
aI00
aI00
aI00
aI00
aI00
aI00
aI00
aI00
aI00
aI00
aI01
aI00
aI01
aI00
aI01
aa(lp80
I01
aI01
aI01
aI01
aI01
aI01
aI01
aI00
aI01
aI01
aI01
aI01
aI01
aI01
aI00
aI00
aI00
aI01
aa(lp81
I01
aI00
aI00
aI00
aI00
aI00
aI00
aI00
aI00
aI00
aI00
aI00
aI00
aI00
aI00
aI01
aI00
aI01
aa(lp82
I01
aI01
aI00
aI01
aI01
aI01
aI01
aI01
aI01
aI01
aI01
aI00
aI01
aI01
aI01
aI01
aI00
aI01
aa(lp83
I01
aI00
aI00
aI01
aI00
aI00
aI00
aI01
aI00
aI00
aI01
aI00
aI01
aI00
aI00
aI01
aI00
aI01
aa(lp84
I01
aI00
aI00
aI01
aI00
aI01
aI00
aI00
aI00
aI00
aI00
aI00
aI00
aI00
aI00
aI00
aI00
aI01
aa(lp85
I01
aI00
aI00
aI00
aI00
aI00
aI00
aI00
aI00
aI00
aI00
aI00
aI01
aI00
aI01
aI00
aI00
aI01
aa(lp86
I01
aI00
aI01
aI00
aI00
aI01
aI00
aI01
aI00
aI00
aI01
aI00
aI00
aI00
aI01
aI00
aI00
aI01
aa(lp87
I01
aI00
aI01
aI01
aI01
aI01
aI00
aI01
aI01
aI01
aI01
aI01
aI01
aI01
aI01
aI00
aI01
aI01
aa(lp88
I01
aI00
aI01
aI00
aI00
aI00
aI00
aI00
aI00
aI00
aI00
aI00
aI00
aI00
aI00
aI00
aI00
aI01
aa(lp89
I01
aI00
aI00
aI00
aI01
aI01
aI01
aI01
aI01
aI01
aI00
aI01
aI01
aI01
aI01
aI01
aI01
aI01
aa(lp90
I01
aI00
aI01
aI00
aI01
aI00
aI00
aI00
aI00
aI00
aI00
aI00
aI00
aI00
aI00
aI01
aI00
aI01
aa(lp91
I01
aI00
aI01
aI00
aI00
aI00
aI01
aI01
aI01
aI01
aI01
aI01
aI01
aI00
aI01
aI01
aI00
aI01
aa(lp92
I01
aI00
aI01
aI00
aI01
aI00
aI00
aI01
aI00
aI00
aI00
aI00
aI00
aI00
aI00
aI00
aI00
aI01
aa(lp93
I01
aI00
aI01
aI00
aI01
aI00
aI00
aI00
aI00
aI01
aI01
aI01
aI01
aI00
aI01
aI01
aI00
aI01
aa(lp94
I01
aI00
aI01
aI00
aI00
aI00
aI00
aI01
aI00
aI00
aI00
aI00
aI00
aI00
aI00
aI01
aI00
aI01
aa(lp95
I01
aI00
aI01
aI01
aI00
aI01
aI01
aI01
aI01
aI01
aI01
aI01
aI01
aI01
aI01
aI01
aI00
aI01
aa(lp96
I01
aI00
aI01
aI00
aI00
aI00
aI00
aI00
aI00
aI00
aI00
aI01
aI00
aI01
aI00
aI01
aI00
aI01
aa(lp97
I01
aI00
aI01
aI00
aI00
aI00
aI01
aI00
aI01
aI00
aI00
aI00
aI00
aI00
aI00
aI01
aI00
aI01
aa(lp98
I01
aI01
aI01
aI01
aI01
aI01
aI01
aI00
aI01
aI01
aI00
aI01
aI01
aI01
aI00
aI01
aI01
aI01
aa(lp99
I01
aI00
aI01
aI00
aI00
aI00
aI01
aI00
aI00
aI00
aI00
aI00
aI00
aI01
aI00
aI01
aI00
aI01
aa(lp100
I01
aI00
aI00
aI00
aI00
aI00
aI00
aI00
aI01
aI00
aI00
aI01
aI00
aI00
aI00
aI00
aI00
aI01
aa(lp101
I01
aI01
aI01
aI01
aI01
aI01
aI01
aI01
aI01
aI01
aI01
aI01
aI01
aI01
aI01
aI01
aI01
aI01
aasg53
I18
sbsS'layoutText'
p102
(lp103
S'%%%%%%%%%%%%%%%%%%%%%%%%%%%%%%%%%%'
p104
aS'%..%..  . o ..     %.%..  .   % 4%'
p105
aS'% %%%%%%%%%% %%%     %%% %%%%%%%2%'
p106
aS'%..%  %       %  %%% %.% %.%     %'
p107
aS'%  %. . %% %% %    %o%     %% %% %'
p108
aS'%  %  %     % %% % % % %.% %. %  %'
p109
aS'%.%%% %.. % %      % % % % %% % %%'
p110
aS'%     %% %%.%.%%  %%.  % %.% .   %'
p111
aS'%% %% %.. % % %    % %.% % %  %  %'
p112
aS'%  %  % % %.% %    % % % ..% %% %%'
p113
aS'%   . %.% %  .%%  %%.%.%% %%     %'
p114
aS'%% % %% % % % %      % % ..% %%%.%'
p115
aS'%  % .% %.% % % % %% %     %  %  %'
p116
aS'% %% %%     %o%    % %% %% . .%  %'
p117
aS'%     %.% %.% %%%  %       %  %..%'
p118
aS'%1%%%%%%% %%%     %%% %%%%%%%%%% %'
p119
aS'%3 %   .  ..%.%     .. o .  ..%..%'
p120
aS'%%%%%%%%%%%%%%%%%%%%%%%%%%%%%%%%%%'
p121
asbsS'blueTeamName'
p122
S'TeamSalt'
p123
sS'actions'
p124
(lp125
(I0
S'North'
p126
tp127
a(I1
S'South'
p128
tp129
a(I2
S'East'
p130
tp131
a(I3
g128
tp132
a(I0
g126
tp133
a(I1
g128
tp134
a(I2
S'West'
p135
tp136
a(I3
g128
tp137
a(I0
g126
tp138
a(I1
g128
tp139
a(I2
g126
tp140
a(I3
g135
tp141
a(I0
g130
tp142
a(I1
g135
tp143
a(I2
g126
tp144
a(I3
g135
tp145
a(I0
g126
tp146
a(I1
g128
tp147
a(I2
g126
tp148
a(I3
g135
tp149
a(I0
g126
tp150
a(I1
g128
tp151
a(I2
g126
tp152
a(I3
g128
tp153
a(I0
g130
tp154
a(I1
g135
tp155
a(I2
g130
tp156
a(I3
g128
tp157
a(I0
g130
tp158
a(I1
g135
tp159
a(I2
g126
tp160
a(I3
g128
tp161
a(I0
g126
tp162
a(I1
g128
tp163
a(I2
g126
tp164
a(I3
g128
tp165
a(I0
g130
tp166
a(I1
g135
tp167
a(I2
g130
tp168
a(I3
g135
tp169
a(I0
g126
tp170
a(I1
g128
tp171
a(I2
g130
tp172
a(I3
g128
tp173
a(I0
g126
tp174
a(I1
g128
tp175
a(I2
g128
tp176
a(I3
g128
tp177
a(I0
g126
tp178
a(I1
g128
tp179
a(I2
g128
tp180
a(I3
g128
tp181
a(I0
g126
tp182
a(I1
g128
tp183
a(I2
g130
tp184
a(I3
g128
tp185
a(I0
g126
tp186
a(I1
g128
tp187
a(I2
g135
tp188
a(I3
g128
tp189
a(I0
g130
tp190
a(I1
g135
tp191
a(I2
g126
tp192
a(I3
g128
tp193
a(I0
g130
tp194
a(I1
g135
tp195
a(I2
g126
tp196
a(I3
g135
tp197
a(I0
g126
tp198
a(I1
g128
tp199
a(I2
g130
tp200
a(I3
g135
tp201
a(I0
g130
tp202
a(I1
g135
tp203
a(I2
g126
tp204
a(I3
g128
tp205
a(I0
g130
tp206
a(I1
g135
tp207
a(I2
g135
tp208
a(I3
g135
tp209
a(I0
g130
tp210
a(I1
g135
tp211
a(I2
g128
tp212
a(I3
g135
tp213
a(I0
g130
tp214
a(I1
g135
tp215
a(I2
g130
tp216
a(I3
g135
tp217
a(I0
g130
tp218
a(I1
g135
tp219
a(I2
g126
tp220
a(I3
g135
tp221
a(I0
g126
tp222
a(I1
g128
tp223
a(I2
g126
tp224
a(I3
g135
tp225
a(I0
g126
tp226
a(I1
g128
tp227
a(I2
g126
tp228
a(I3
g128
tp229
a(I0
g130
tp230
a(I1
g135
tp231
a(I2
g126
tp232
a(I3
g128
tp233
a(I0
g130
tp234
a(I1
g135
tp235
a(I2
g126
tp236
a(I3
g130
tp237
a(I0
g130
tp238
a(I1
g135
tp239
a(I2
g126
tp240
a(I3
g130
tp241
a(I0
g130
tp242
a(I1
g135
tp243
a(I2
g126
tp244
a(I3
g130
tp245
a(I0
g130
tp246
a(I1
g135
tp247
a(I2
g135
tp248
a(I3
g135
tp249
a(I0
g128
tp250
a(I1
g135
tp251
a(I2
g128
tp252
a(I3
g135
tp253
a(I0
g130
tp254
a(I1
g126
tp255
a(I2
g128
tp256
a(I3
g130
tp257
a(I0
g130
tp258
a(I1
g135
tp259
a(I2
g130
tp260
a(I3
g130
tp261
a(I0
g130
tp262
a(I1
g135
tp263
a(I2
g126
tp264
a(I3
g135
tp265
a(I0
g126
tp266
a(I1
g128
tp267
a(I2
g130
tp268
a(I3
g135
tp269
a(I0
g128
tp270
a(I1
g126
tp271
a(I2
g130
tp272
a(I3
g130
tp273
a(I0
g128
tp274
a(I1
g126
tp275
a(I2
g128
tp276
a(I3
g130
tp277
a(I0
g128
tp278
a(I1
g126
tp279
a(I2
g128
tp280
a(I3
g135
tp281
a(I0
g128
tp282
a(I1
g126
tp283
a(I2
g130
tp284
a(I3
g135
tp285
a(I0
g128
tp286
a(I1
g126
tp287
a(I2
g130
tp288
a(I3
g130
tp289
a(I0
g128
tp290
a(I1
g126
tp291
a(I2
g126
tp292
a(I3
g130
tp293
a(I0
g128
tp294
a(I1
g135
tp295
a(I2
g135
tp296
a(I3
g135
tp297
a(I0
g128
tp298
a(I1
g135
tp299
a(I2
g128
tp300
a(I3
g135
tp301
a(I0
g128
tp302
a(I1
g126
tp303
a(I2
g130
tp304
a(I3
g130
tp305
a(I0
g126
tp306
a(I1
g126
tp307
a(I2
g126
tp308
a(I3
g130
tp309
a(I0
g126
tp310
a(I1
g126
tp311
a(I2
g130
tp312
a(I3
g135
tp313
a(I0
g126
tp314
a(I1
g126
tp315
a(I2
g130
tp316
a(I3
g135
tp317
a(I0
g130
tp318
a(I1
g126
tp319
a(I2
g126
tp320
a(I3
g130
tp321
a(I0
g130
tp322
a(I1
g135
tp323
a(I2
g126
tp324
a(I3
g130
tp325
a(I0
g128
tp326
a(I1
g135
tp327
a(I2
g126
tp328
a(I3
g135
tp329
a(I0
g128
tp330
a(I1
g135
tp331
a(I2
g126
tp332
a(I3
g135
tp333
a(I0
g128
tp334
a(I1
g128
tp335
a(I2
g130
tp336
a(I3
g130
tp337
a(I0
g128
tp338
a(I1
g135
tp339
a(I2
g126
tp340
a(I3
g130
tp341
a(I0
g128
tp342
a(I1
g126
tp343
a(I2
g126
tp344
a(I3
g135
tp345
a(I0
g130
tp346
a(I1
g126
tp347
a(I2
g135
tp348
a(I3
g135
tp349
a(I0
g130
tp350
a(I1
g135
tp351
a(I2
g126
tp352
a(I3
g130
tp353
a(I0
g126
tp354
a(I1
g135
tp355
a(I2
g130
tp356
a(I3
g130
tp357
a(I0
g130
tp358
a(I1
g135
tp359
a(I2
g128
tp360
a(I3
g135
tp361
a(I0
g130
tp362
a(I1
g128
tp363
a(I2
g128
tp364
a(I3
g135
tp365
a(I0
g128
tp366
a(I1
g130
tp367
a(I2
g128
tp368
a(I3
g130
tp369
a(I0
g128
tp370
a(I1
g128
tp371
a(I2
g135
tp372
a(I3
g130
tp373
a(I0
g130
tp374
a(I1
g128
tp375
a(I2
g128
tp376
a(I3
g135
tp377
a(I0
g130
tp378
a(I1
g128
tp379
a(I2
g128
tp380
a(I3
g135
tp381
a(I0
g130
tp382
a(I1
g126
tp383
a(I2
g128
tp384
a(I3
g130
tp385
a(I0
g135
tp386
a(I1
g126
tp387
a(I2
g128
tp388
a(I3
g130
tp389
a(I0
g135
tp390
a(I1
g126
tp391
a(I2
g130
tp392
a(I3
g135
tp393
a(I0
g135
tp394
a(I1
g126
tp395
a(I2
g135
tp396
a(I3
g135
tp397
a(I0
g126
tp398
a(I1
g130
tp399
a(I2
g126
tp400
a(I3
g130
tp401
a(I0
g126
tp402
a(I1
g130
tp403
a(I2
g126
tp404
a(I3
g130
tp405
a(I0
g135
tp406
a(I1
g126
tp407
a(I2
g126
tp408
a(I3
g135
tp409
a(I0
g126
tp410
a(I1
g130
tp411
a(I2
g126
tp412
a(I3
g135
tp413
a(I0
g126
tp414
a(I1
g130
tp415
a(I2
g130
tp416
a(I3
g130
tp417
a(I0
g130
tp418
a(I1
g130
tp419
a(I2
g126
tp420
a(I3
g130
tp421
a(I0
g126
tp422
a(I1
g130
tp423
a(I2
g126
tp424
a(I3
g135
tp425
a(I0
g126
tp426
a(I1
g130
tp427
a(I2
g126
tp428
a(I3
g135
tp429
a(I0
g126
tp430
a(I1
g126
tp431
a(I2
g126
tp432
a(I3
g130
tp433
a(I0
g126
tp434
a(I1
g126
tp435
a(I2
g126
tp436
a(I3
g130
tp437
a(I0
g126
tp438
a(I1
g130
tp439
a(I2
g130
tp440
a(I3
g135
tp441
a(I0
g126
tp442
a(I1
g135
tp443
a(I2
g130
tp444
a(I3
g135
tp445
a(I0
g128
tp446
a(I1
g135
tp447
a(I2
g130
tp448
a(I3
g130
tp449
a(I0
g135
tp450
a(I1
g135
tp451
a(I2
g126
tp452
a(I3
g130
tp453
a(I0
g135
tp454
a(I1
g135
tp455
a(I2
g126
tp456
a(I3
g135
tp457
a(I0
g128
tp458
a(I1
g135
tp459
a(I2
g135
tp460
a(I3
g135
tp461
a(I0
g126
tp462
a(I1
g135
tp463
a(I2
g126
tp464
a(I3
g130
tp465
a(I0
g135
tp466
a(I1
g135
tp467
a(I2
g130
tp468
a(I3
g130
tp469
a(I0
g135
tp470
a(I1
g135
tp471
a(I2
g130
tp472
a(I3
g135
tp473
a(I0
g126
tp474
a(I1
g135
tp475
a(I2
g130
tp476
a(I3
g135
tp477
a(I0
g128
tp478
a(I1
g130
tp479
a(I2
g126
tp480
a(I3
g130
tp481
a(I0
g130
tp482
a(I1
g130
tp483
a(I2
g130
tp484
a(I3
g130
tp485
a(I0
g130
tp486
a(I1
g130
tp487
a(I2
g130
tp488
a(I3
g135
tp489
a(I0
g126
tp490
a(I1
g130
tp491
a(I2
g130
tp492
a(I3
g135
tp493
a(I0
g126
tp494
a(I1
g130
tp495
a(I2
g130
tp496
a(I3
g130
tp497
a(I0
g126
tp498
a(I1
g130
tp499
a(I2
g130
tp500
a(I3
g130
tp501
a(I0
g135
tp502
a(I1
g130
tp503
a(I2
g126
tp504
a(I3
g135
tp505
a(I0
g135
tp506
a(I1
g130
tp507
a(I2
g128
tp508
a(I3
g135
tp509
a(I0
g130
tp510
a(I1
g128
tp511
a(I2
g135
tp512
a(I3
g130
tp513
a(I0
g130
tp514
a(I1
g128
tp515
a(I2
g135
tp516
a(I3
g130
tp517
a(I0
g130
tp518
a(I1
g130
tp519
a(I2
g130
tp520
a(I3
g135
tp521
a(I0
g130
tp522
a(I1
g128
tp523
a(I2
g130
tp524
a(I3
g135
tp525
a(I0
g135
tp526
a(I1
g128
tp527
a(I2
g130
tp528
a(I3
g130
tp529
a(I0
g135
tp530
a(I1
g128
tp531
a(I2
g128
tp532
a(I3
g130
tp533
a(I0
g128
tp534
a(I1
g128
tp535
a(I2
g128
tp536
a(I3
g135
tp537
a(I0
g128
tp538
a(I1
g128
tp539
a(I2
g128
tp540
a(I3
g135
tp541
a(I0
g128
tp542
a(I1
g128
tp543
a(I2
g128
tp544
a(I3
g130
tp545
a(I0
g128
tp546
a(I1
g128
tp547
a(I2
g128
tp548
a(I3
g130
tp549
a(I0
g128
tp550
a(I1
g135
tp551
a(I2
g128
tp552
a(I3
g135
tp553
a(I0
g128
tp554
a(I1
g135
tp555
a(I2
g128
tp556
a(I3
g135
tp557
a(I0
g128
tp558
a(I1
g128
tp559
a(I2
g135
tp560
a(I3
g130
tp561
a(I0
g128
tp562
a(I1
g128
tp563
a(I2
g135
tp564
a(I3
g130
tp565
a(I0
g130
tp566
a(I1
g128
tp567
a(I2
g128
tp568
a(I3
g135
tp569
a(I0
g128
tp570
a(I1
g128
tp571
a(I2
g128
tp572
a(I3
g135
tp573
a(I0
g128
tp574
a(I1
g126
tp575
a(I2
g126
tp576
a(I3
g130
tp577
a(I0
g128
tp578
a(I1
g135
tp579
a(I2
g128
tp580
a(I3
g130
tp581
a(I0
g135
tp582
a(I1
g135
tp583
a(I2
g128
tp584
a(I3
g135
tp585
a(I0
g135
tp586
a(I1
g126
tp587
a(I2
g135
tp588
a(I3
g135
tp589
a(I0
g128
tp590
a(I1
g128
tp591
a(I2
g130
tp592
a(I3
g135
tp593
a(I0
g128
tp594
a(I1
g135
tp595
a(I2
g135
tp596
a(I3
g130
tp597
a(I0
g135
tp598
a(I1
g135
tp599
a(I2
g135
tp600
a(I3
g130
tp601
a(I0
g135
tp602
a(I1
g128
tp603
a(I2
g135
tp604
a(I3
g135
tp605
a(I0
g128
tp606
a(I1
g126
tp607
a(I2
g130
tp608
a(I3
g135
tp609
a(I0
g128
tp610
a(I1
g126
tp611
a(I2
g135
tp612
a(I3
g130
tp613
a(I0
g126
tp614
a(I1
g126
tp615
a(I2
g135
tp616
a(I3
g130
tp617
a(I0
g130
tp618
a(I1
g126
tp619
a(I2
g126
tp620
a(I3
g130
tp621
a(I0
g130
tp622
a(I1
g126
tp623
a(I2
g126
tp624
a(I3
g135
tp625
a(I0
g130
tp626
a(I1
g126
tp627
a(I2
g126
tp628
a(I3
g130
tp629
a(I0
g126
tp630
a(I1
g130
tp631
a(I2
g126
tp632
a(I3
g135
tp633
a(I0
g126
tp634
a(I1
g130
tp635
a(I2
g126
tp636
a(I3
g130
tp637
a(I0
g126
tp638
a(I1
g128
tp639
a(I2
g130
tp640
a(I3
g135
tp641
a(I0
g126
tp642
a(I1
g128
tp643
a(I2
g130
tp644
a(I3
g130
tp645
a(I0
g126
tp646
a(I1
g128
tp647
a(I2
g128
tp648
a(I3
g135
tp649
a(I0
g130
tp650
a(I1
g128
tp651
a(I2
g128
tp652
a(I3
g130
tp653
a(I0
g126
tp654
a(I1
g128
tp655
a(I2
g128
tp656
a(I3
g135
tp657
a(I0
g126
tp658
a(I1
g128
tp659
a(I2
g128
tp660
a(I3
g130
tp661
a(I0
g126
tp662
a(I1
g128
tp663
a(I2
g128
tp664
a(I3
g135
tp665
a(I0
g126
tp666
a(I1
g128
tp667
a(I2
g128
tp668
a(I3
g130
tp669
a(I0
g126
tp670
a(I1
g130
tp671
a(I2
g128
tp672
a(I3
g135
tp673
a(I0
g130
tp674
a(I1
g130
tp675
a(I2
g128
tp676
a(I3
g130
tp677
a(I0
g130
tp678
a(I1
g135
tp679
a(I2
g130
tp680
a(I3
g135
tp681
a(I0
g128
tp682
a(I1
g128
tp683
a(I2
g130
tp684
a(I3
g130
tp685
a(I0
g130
tp686
a(I1
g128
tp687
a(I2
g135
tp688
a(I3
g135
tp689
a(I0
g130
tp690
a(I1
g128
tp691
a(I2
g135
tp692
a(I3
g130
tp693
a(I0
g130
tp694
a(I1
g135
tp695
a(I2
g126
tp696
a(I3
g135
tp697
a(I0
g130
tp698
a(I1
g128
tp699
a(I2
g126
tp700
a(I3
g130
tp701
a(I0
g128
tp702
a(I1
g128
tp703
a(I2
g126
tp704
a(I3
g135
tp705
a(I0
g128
tp706
a(I1
g128
tp707
a(I2
g126
tp708
a(I3
g130
tp709
a(I0
g128
tp710
a(I1
g128
tp711
a(I2
g126
tp712
a(I3
g135
tp713
a(I0
g128
tp714
a(I1
g128
tp715
a(I2
g126
tp716
a(I3
g130
tp717
a(I0
g128
tp718
a(I1
g135
tp719
a(I2
g126
tp720
a(I3
g135
tp721
a(I0
g130
tp722
a(I1
g135
tp723
a(I2
g126
tp724
a(I3
g130
tp725
a(I0
g130
tp726
a(I1
g135
tp727
a(I2
g135
tp728
a(I3
g135
tp729
a(I0
g128
tp730
a(I1
g128
tp731
a(I2
g126
tp732
a(I3
g130
tp733
a(I0
g128
tp734
a(I1
g128
tp735
a(I2
g126
tp736
a(I3
g135
tp737
a(I0
g128
tp738
a(I1
g128
tp739
a(I2
g126
tp740
a(I3
g130
tp741
a(I0
g128
tp742
a(I1
g135
tp743
a(I2
g130
tp744
a(I3
g135
tp745
a(I0
g128
tp746
a(I1
g135
tp747
a(I2
g130
tp748
a(I3
g130
tp749
a(I0
g130
tp750
a(I1
g128
tp751
a(I2
g126
tp752
a(I3
g135
tp753
a(I0
g130
tp754
a(I1
g135
tp755
a(I2
g126
tp756
a(I3
g130
tp757
a(I0
g128
tp758
a(I1
g135
tp759
a(I2
g130
tp760
a(I3
g135
tp761
a(I0
g130
tp762
a(I1
g135
tp763
a(I2
g130
tp764
a(I3
g130
tp765
a(I0
g130
tp766
a(I1
g135
tp767
a(I2
g126
tp768
a(I3
g135
tp769
a(I0
g130
tp770
a(I1
g135
tp771
a(I2
g126
tp772
a(I3
g135
tp773
a(I0
g130
tp774
a(I1
g128
tp775
a(I2
g135
tp776
a(I3
g130
tp777
a(I0
g130
tp778
a(I1
g128
tp779
a(I2
g135
tp780
a(I3
g130
tp781
a(I0
S'Stop'
p782
tp783
a(I1
g135
tp784
a(I2
g135
tp785
a(I3
g135
tp786
a(I0
g126
tp787
a(I1
g135
tp788
a(I2
g135
tp789
a(I3
g130
tp790
a(I0
g130
tp791
a(I1
g135
tp792
a(I2
g135
tp793
a(I3
g135
tp794
a(I0
g130
tp795
a(I1
g135
tp796
a(I2
g135
tp797
a(I3
g130
tp798
a(I0
g130
tp799
a(I1
g126
tp800
a(I2
g135
tp801
a(I3
g135
tp802
a(I0
g126
tp803
a(I1
g135
tp804
a(I2
g135
tp805
a(I3
g130
tp806
a(I0
g126
tp807
a(I1
g135
tp808
a(I2
g130
tp809
a(I3
g135
tp810
a(I0
g126
tp811
a(I1
g135
tp812
a(I2
g130
tp813
a(I3
g130
tp814
a(I0
g126
tp815
a(I1
g135
tp816
a(I2
g130
tp817
a(I3
g135
tp818
a(I0
g130
tp819
a(I1
g126
tp820
a(I2
g130
tp821
a(I3
g130
tp822
a(I0
g126
tp823
a(I1
g126
tp824
a(I2
g130
tp825
a(I3
g135
tp826
a(I0
g126
tp827
a(I1
g126
tp828
a(I2
g130
tp829
a(I3
g130
tp830
a(I0
g126
tp831
a(I1
g126
tp832
a(I2
g130
tp833
a(I3
g135
tp834
a(I0
g126
tp835
a(I1
g126
tp836
a(I2
g130
tp837
a(I3
g130
tp838
a(I0
g126
tp839
a(I1
g135
tp840
a(I2
g128
tp841
a(I3
g135
tp842
a(I0
g126
tp843
a(I1
g135
tp844
a(I2
g128
tp845
a(I3
g130
tp846
a(I0
g130
tp847
a(I1
g128
tp848
a(I2
g135
tp849
a(I3
g135
tp850
a(I0
g130
tp851
a(I1
g128
tp852
a(I2
g135
tp853
a(I3
g130
tp854
a(I0
g128
tp855
a(I1
g128
tp856
a(I2
g128
tp857
a(I3
g135
tp858
a(I0
g130
tp859
a(I1
g135
tp860
a(I2
g128
tp861
a(I3
g130
tp862
a(I0
g130
tp863
a(I1
g135
tp864
a(I2
g135
tp865
a(I3
g135
tp866
a(I0
g130
tp867
a(I1
g128
tp868
a(I2
g135
tp869
a(I3
g130
tp870
a(I0
g130
tp871
a(I1
g128
tp872
a(I2
g135
tp873
a(I3
g135
tp874
a(I0
g128
tp875
a(I1
g128
tp876
a(I2
g126
tp877
a(I3
g130
tp878
a(I0
g128
tp879
a(I1
g135
tp880
a(I2
g135
tp881
a(I3
g135
tp882
a(I0
g128
tp883
a(I1
g135
tp884
a(I2
g135
tp885
a(I3
g130
tp886
a(I0
g128
tp887
a(I1
g130
tp888
a(I2
g135
tp889
a(I3
g135
tp890
a(I0
g128
tp891
a(I1
g130
tp892
a(I2
g128
tp893
a(I3
g130
tp894
a(I0
g130
tp895
a(I1
g126
tp896
a(I2
g130
tp897
a(I3
g135
tp898
a(I0
g130
tp899
a(I1
g126
tp900
a(I2
g126
tp901
a(I3
g130
tp902
a(I0
g128
tp903
a(I1
g126
tp904
a(I2
g130
tp905
a(I3
g135
tp906
a(I0
g128
tp907
a(I1
g126
tp908
a(I2
g130
tp909
a(I3
g130
tp910
a(I0
g128
tp911
a(I1
g126
tp912
a(I2
g126
tp913
a(I3
g135
tp914
a(I0
g128
tp915
a(I1
g126
tp916
a(I2
g130
tp917
a(I3
g130
tp918
a(I0
g128
tp919
a(I1
g126
tp920
a(I2
g130
tp921
a(I3
g135
tp922
a(I0
g130
tp923
a(I1
g126
tp924
a(I2
g130
tp925
a(I3
g130
tp926
a(I0
g130
tp927
a(I1
g135
tp928
a(I2
g130
tp929
a(I3
g135
tp930
a(I0
g128
tp931
a(I1
g126
tp932
a(I2
g130
tp933
a(I3
g130
tp934
a(I0
g130
tp935
a(I1
g126
tp936
a(I2
g126
tp937
a(I3
g135
tp938
a(I0
g130
tp939
a(I1
g135
tp940
a(I2
g126
tp941
a(I3
g130
tp942
a(I0
g130
tp943
a(I1
g126
tp944
a(I2
g135
tp945
a(I3
g135
tp946
a(I0
g130
tp947
a(I1
g126
tp948
a(I2
g135
tp949
a(I3
g135
tp950
a(I0
g130
tp951
a(I1
g135
tp952
a(I2
g135
tp953
a(I3
g130
tp954
a(I0
g130
tp955
a(I1
g135
tp956
a(I2
g135
tp957
a(I3
g130
tp958
a(I0
g130
tp959
a(I1
g128
tp960
a(I2
g135
tp961
a(I3
g135
tp962
a(I0
g130
tp963
a(I1
g128
tp964
a(I2
g135
tp965
a(I3
g128
tp966
a(I0
g130
tp967
a(I1
g128
tp968
a(I2
g135
tp969
a(I3
g128
tp970
a(I0
g130
tp971
a(I1
g128
tp972
a(I2
g135
tp973
a(I3
g135
tp974
a(I0
g130
tp975
a(I1
g128
tp976
a(I2
g130
tp977
a(I3
g135
tp978
a(I0
g130
tp979
a(I1
g128
tp980
a(I2
g130
tp981
a(I3
g135
tp982
a(I0
g130
tp983
a(I1
g135
tp984
a(I2
g130
tp985
a(I3
g128
tp986
a(I0
g130
tp987
a(I1
g128
tp988
a(I2
g130
tp989
a(I3
g128
tp990
a(I0
g135
tp991
a(I1
g128
tp992
a(I2
g130
tp993
a(I3
g128
tp994
a(I0
g135
tp995
a(I1
g130
tp996
a(I2
g130
tp997
a(I3
g128
tp998
a(I0
g135
tp999
a(I1
g135
tp1000
a(I2
g130
tp1001
a(I3
g135
tp1002
a(I0
g135
tp1003
a(I1
g126
tp1004
a(I2
g130
tp1005
a(I3
g128
tp1006
a(I0
g135
tp1007
a(I1
g126
tp1008
a(I2
g128
tp1009
a(I3
g128
tp1010
a(I0
g135
tp1011
a(I1
g135
tp1012
a(I2
g128
tp1013
a(I3
g128
tp1014
a(I0
g135
tp1015
a(I1
g135
tp1016
a(I2
g135
tp1017
a(I3
g128
tp1018
a(I0
g135
tp1019
a(I1
g126
tp1020
a(I2
g135
tp1021
a(I3
g128
tp1022
a(I0
g126
tp1023
a(I1
g126
tp1024
a(I2
g135
tp1025
a(I3
g130
tp1026
a(I0
g126
tp1027
a(I1
g126
tp1028
a(I2
g135
tp1029
a(I3
g128
tp1030
a(I0
g130
tp1031
a(I1
g135
tp1032
a(I2
g135
tp1033
a(I3
g128
tp1034
a(I0
g130
tp1035
a(I1
g126
tp1036
a(I2
g128
tp1037
a(I3
g135
tp1038
a(I0
g130
tp1039
a(I1
g126
tp1040
a(I2
g135
tp1041
a(I3
g126
tp1042
a(I0
g130
tp1043
a(I1
g126
tp1044
a(I2
g135
tp1045
a(I3
g135
tp1046
a(I0
g130
tp1047
a(I1
g126
tp1048
a(I2
g128
tp1049
a(I3
g135
tp1050
a(I0
g782
tp1051
a(I1
g130
tp1052
asS'length'
p1053
I1200
sS'agents'
p1054
(lp1055
(igame
Agent
p1056
(dp1057
S'index'
p1058
I0
sba(igame
Agent
p1059
(dp1060
g1058
I0
sba(igame
Agent
p1061
(dp1062
g1058
I0
sba(igame
Agent
p1063
(dp1064
g1058
I0
sbasS'redTeamName'
p1065
S'SPICYKEBAB'
p1066
s.