(dp1
S'layout'
p2
(ilayout
Layout
p3
(dp4
S'capsules'
p5
(lp6
(I6
I5
tp7
a(I25
I10
tp8
asS'numGhosts'
p9
I4
sS'food'
p10
(igame
Grid
p11
(dp12
S'CELLS_PER_INT'
p13
I30
sS'width'
p14
I32
sS'data'
p15
(lp16
(lp17
I00
aI00
aI00
aI00
aI00
aI00
aI00
aI00
aI00
aI00
aI00
aI00
aI00
aI00
aI00
aI00
aa(lp18
I00
aI00
aI00
aI00
aI00
aI00
aI00
aI00
aI00
aI00
aI00
aI00
aI00
aI00
aI00
aI00
aa(lp19
I00
aI00
aI00
aI00
aI00
aI00
aI00
aI00
aI00
aI00
aI00
aI00
aI00
aI00
aI00
aI00
aa(lp20
I00
aI01
aI01
aI00
aI00
aI00
aI00
aI00
aI01
aI00
aI00
aI00
aI00
aI00
aI00
aI00
aa(lp21
I00
aI00
aI00
aI00
aI00
aI00
aI00
aI00
aI00
aI00
aI00
aI00
aI00
aI00
aI00
aI00
aa(lp22
I00
aI01
aI00
aI00
aI00
aI00
aI00
aI00
aI00
aI00
aI00
aI00
aI01
aI00
aI01
aI00
aa(lp23
I00
aI00
aI00
aI00
aI00
aI00
aI00
aI00
aI00
aI00
aI00
aI00
aI00
aI00
aI00
aI00
aa(lp24
I00
aI00
aI00
aI01
aI00
aI00
aI00
aI00
aI01
aI01
aI00
aI00
aI00
aI00
aI00
aI00
aa(lp25
I00
aI00
aI00
aI01
aI00
aI00
aI00
aI00
aI00
aI01
aI00
aI00
aI00
aI00
aI01
aI00
aa(lp26
I00
aI00
aI00
aI00
aI00
aI01
aI00
aI00
aI00
aI00
aI00
aI01
aI00
aI00
aI00
aI00
aa(lp27
I00
aI00
aI00
aI01
aI00
aI00
aI00
aI01
aI00
aI01
aI00
aI01
aI00
aI00
aI01
aI00
aa(lp28
I00
aI00
aI00
aI00
aI00
aI00
aI00
aI00
aI00
aI00
aI00
aI00
aI00
aI00
aI00
aI00
aa(lp29
I00
aI00
aI00
aI00
aI00
aI00
aI00
aI00
aI00
aI00
aI00
aI00
aI00
aI00
aI00
aI00
aa(lp30
I00
aI00
aI00
aI00
aI00
aI00
aI00
aI00
aI00
aI00
aI00
aI00
aI00
aI00
aI00
aI00
aa(lp31
I00
aI00
aI00
aI00
aI00
aI00
aI00
aI00
aI00
aI01
aI00
aI00
aI00
aI00
aI00
aI00
aa(lp32
I00
aI00
aI00
aI00
aI00
aI00
aI00
aI00
aI00
aI00
aI00
aI00
aI00
aI00
aI00
aI00
aa(lp33
I00
aI00
aI00
aI00
aI00
aI00
aI00
aI00
aI00
aI00
aI00
aI00
aI00
aI00
aI00
aI00
aa(lp34
I00
aI00
aI00
aI00
aI00
aI00
aI01
aI00
aI00
aI00
aI00
aI00
aI00
aI00
aI00
aI00
aa(lp35
I00
aI00
aI00
aI00
aI00
aI00
aI00
aI00
aI00
aI00
aI00
aI00
aI00
aI00
aI00
aI00
aa(lp36
I00
aI00
aI00
aI00
aI00
aI00
aI00
aI00
aI00
aI00
aI00
aI00
aI00
aI00
aI00
aI00
aa(lp37
I00
aI00
aI00
aI00
aI00
aI00
aI00
aI00
aI00
aI00
aI00
aI00
aI00
aI00
aI00
aI00
aa(lp38
I00
aI01
aI00
aI00
aI01
aI00
aI01
aI00
aI01
aI00
aI00
aI00
aI01
aI00
aI00
aI00
aa(lp39
I00
aI00
aI00
aI00
aI01
aI00
aI00
aI00
aI00
aI00
aI01
aI00
aI00
aI00
aI00
aI00
aa(lp40
I00
aI01
aI00
aI00
aI00
aI00
aI01
aI00
aI00
aI00
aI00
aI00
aI01
aI00
aI00
aI00
aa(lp41
I00
aI00
aI00
aI00
aI00
aI00
aI01
aI01
aI00
aI00
aI00
aI00
aI01
aI00
aI00
aI00
aa(lp42
I00
aI00
aI00
aI00
aI00
aI00
aI00
aI00
aI00
aI00
aI00
aI00
aI00
aI00
aI00
aI00
aa(lp43
I00
aI01
aI00
aI01
aI00
aI00
aI00
aI00
aI00
aI00
aI00
aI00
aI00
aI00
aI01
aI00
aa(lp44
I00
aI00
aI00
aI00
aI00
aI00
aI00
aI00
aI00
aI00
aI00
aI00
aI00
aI00
aI00
aI00
aa(lp45
I00
aI00
aI00
aI00
aI00
aI00
aI00
aI01
aI00
aI00
aI00
aI00
aI00
aI01
aI01
aI00
aa(lp46
I00
aI00
aI00
aI00
aI00
aI00
aI00
aI00
aI00
aI00
aI00
aI00
aI00
aI00
aI00
aI00
aa(lp47
I00
aI00
aI00
aI00
aI00
aI00
aI00
aI00
aI00
aI00
aI00
aI00
aI00
aI00
aI00
aI00
aa(lp48
I00
aI00
aI00
aI00
aI00
aI00
aI00
aI00
aI00
aI00
aI00
aI00
aI00
aI00
aI00
aI00
aasS'height'
p49
I16
sbsS'agentPositions'
p50
(lp51
(I00
(I1
I2
tp52
tp53
a(I00
(I30
I13
tp54
tp55
a(I00
(I1
I1
tp56
tp57
a(I00
(I30
I14
tp58
tp59
asg49
I16
sg14
I32
sS'walls'
p60
(igame
Grid
p61
(dp62
g13
I30
sg14
I32
sg15
(lp63
(lp64
I01
aI01
aI01
aI01
aI01
aI01
aI01
aI01
aI01
aI01
aI01
aI01
aI01
aI01
aI01
aI01
aa(lp65
I01
aI00
aI00
aI00
aI00
aI00
aI00
aI00
aI00
aI00
aI00
aI00
aI00
aI00
aI00
aI01
aa(lp66
I01
aI01
aI01
aI01
aI01
aI01
aI01
aI01
aI01
aI01
aI01
aI01
aI01
aI01
aI00
aI01
aa(lp67
I01
aI00
aI00
aI00
aI00
aI00
aI00
aI01
aI00
aI01
aI00
aI00
aI00
aI00
aI00
aI01
aa(lp68
I01
aI01
aI01
aI01
aI01
aI01
aI00
aI00
aI00
aI00
aI00
aI01
aI01
aI01
aI01
aI01
aa(lp69
I01
aI00
aI00
aI00
aI00
aI00
aI00
aI00
aI01
aI01
aI00
aI01
aI00
aI01
aI00
aI01
aa(lp70
I01
aI01
aI00
aI01
aI01
aI00
aI01
aI01
aI01
aI00
aI00
aI00
aI00
aI00
aI00
aI01
aa(lp71
I01
aI00
aI00
aI00
aI01
aI00
aI00
aI01
aI00
aI00
aI01
aI01
aI01
aI00
aI01
aI01
aa(lp72
I01
aI00
aI01
aI00
aI01
aI01
aI00
aI01
aI01
aI00
aI01
aI00
aI00
aI00
aI00
aI01
aa(lp73
I01
aI00
aI01
aI01
aI01
aI00
aI00
aI01
aI01
aI01
aI01
aI00
aI01
aI00
aI01
aI01
aa(lp74
I01
aI00
aI01
aI00
aI01
aI01
aI00
aI00
aI01
aI00
aI01
aI00
aI01
aI00
aI00
aI01
aa(lp75
I01
aI00
aI00
aI00
aI00
aI01
aI00
aI01
aI01
aI00
aI01
aI01
aI01
aI00
aI01
aI01
aa(lp76
I01
aI01
aI00
aI01
aI00
aI01
aI00
aI00
aI00
aI00
aI00
aI00
aI00
aI00
aI00
aI01
aa(lp77
I01
aI00
aI00
aI01
aI00
aI00
aI00
aI00
aI00
aI01
aI01
aI01
aI00
aI01
aI00
aI01
aa(lp78
I01
aI00
aI01
aI01
aI01
aI00
aI01
aI00
aI00
aI00
aI01
aI00
aI00
aI01
aI00
aI01
aa(lp79
I01
aI00
aI00
aI01
aI00
aI00
aI01
aI00
aI00
aI01
aI01
aI00
aI00
aI00
aI00
aI01
aa(lp80
I01
aI00
aI00
aI00
aI00
aI01
aI01
aI00
aI00
aI01
aI00
aI00
aI01
aI00
aI00
aI01
aa(lp81
I01
aI00
aI01
aI00
aI00
aI01
aI00
aI00
aI00
aI01
aI00
aI01
aI01
aI01
aI00
aI01
aa(lp82
I01
aI00
aI01
aI00
aI01
aI01
aI01
aI00
aI00
aI00
aI00
aI00
aI01
aI00
aI00
aI01
aa(lp83
I01
aI00
aI00
aI00
aI00
aI00
aI00
aI00
aI00
aI00
aI01
aI00
aI01
aI00
aI01
aI01
aa(lp84
I01
aI01
aI00
aI01
aI01
aI01
aI00
aI01
aI01
aI00
aI01
aI00
aI00
aI00
aI00
aI01
aa(lp85
I01
aI00
aI00
aI01
aI00
aI01
aI00
aI01
aI00
aI00
aI01
aI01
aI00
aI01
aI00
aI01
aa(lp86
I01
aI01
aI00
aI01
aI00
aI01
aI01
aI01
aI01
aI00
aI00
aI01
aI01
aI01
aI00
aI01
aa(lp87
I01
aI00
aI00
aI00
aI00
aI01
aI00
aI01
aI01
aI00
aI01
aI01
aI00
aI01
aI00
aI01
aa(lp88
I01
aI01
aI00
aI01
aI01
aI01
aI00
aI00
aI01
aI00
aI00
aI01
aI00
aI00
aI00
aI01
aa(lp89
I01
aI00
aI00
aI00
aI00
aI00
aI00
aI01
aI01
aI01
aI00
aI01
aI01
aI00
aI01
aI01
aa(lp90
I01
aI00
aI01
aI00
aI01
aI00
aI01
aI01
aI00
aI00
aI00
aI00
aI00
aI00
aI00
aI01
aa(lp91
I01
aI01
aI01
aI01
aI01
aI00
aI00
aI00
aI00
aI00
aI01
aI01
aI01
aI01
aI01
aI01
aa(lp92
I01
aI00
aI00
aI00
aI00
aI00
aI01
aI00
aI01
aI00
aI00
aI00
aI00
aI00
aI00
aI01
aa(lp93
I01
aI00
aI01
aI01
aI01
aI01
aI01
aI01
aI01
aI01
aI01
aI01
aI01
aI01
aI01
aI01
aa(lp94
I01
aI00
aI00
aI00
aI00
aI00
aI00
aI00
aI00
aI00
aI00
aI00
aI00
aI00
aI00
aI01
aa(lp95
I01
aI01
aI01
aI01
aI01
aI01
aI01
aI01
aI01
aI01
aI01
aI01
aI01
aI01
aI01
aI01
aasg49
I16
sbsS'layoutText'
p96
(lp97
S'%%%%%%%%%%%%%%%%%%%%%%%%%%%%%%%%'
p98
aS'%   %. %.%.%       %     %.%.%4%'
p99
aS'% % %%       %%  %   %%%   %.%2%'
p100
aS'% % %. % %%%    %%%% .%..% % % %'
p101
aS'% % %% % ..% %   %   %%%%% % % %'
p102
aS'% %    %%%%% %%%   %%%.% o % % %'
p103
aS'% %% % ..%.  %.%%%       %   % %'
p104
aS'% %. %%.%%%%        %.%%%%  %% %'
p105
aS'% %%  %%%%.%        %%%%.%% .% %'
p106
aS'% %   %       %%%.%  .%.. % %% %'
p107
aS'% % % o %.%%%   %%% %%%%%    % %'
p108
aS'% % % %%%%%   %   % %.. % %% % %'
p109
aS'% % % %..%. %%%%    %%% % .% % %'
p110
aS'%1%.%   %%%   %  %%       %% % %'
p111
aS'%3%.%.%     %       %.%.% .%   %'
p112
aS'%%%%%%%%%%%%%%%%%%%%%%%%%%%%%%%%'
p113
asbsS'blueTeamName'
p114
S'Clyde'
p115
sS'actions'
p116
(lp117
(I1
S'South'
p118
tp119
a(I2
S'North'
p120
tp121
a(I3
g118
tp122
a(I0
g120
tp123
a(I1
g118
tp124
a(I2
g120
tp125
a(I3
g118
tp126
a(I0
g120
tp127
a(I1
g118
tp128
a(I2
g120
tp129
a(I3
g118
tp130
a(I0
g120
tp131
a(I1
g118
tp132
a(I2
g120
tp133
a(I3
g118
tp134
a(I0
g120
tp135
a(I1
g118
tp136
a(I2
g120
tp137
a(I3
g118
tp138
a(I0
g120
tp139
a(I1
g118
tp140
a(I2
g120
tp141
a(I3
g118
tp142
a(I0
g120
tp143
a(I1
g118
tp144
a(I2
g120
tp145
a(I3
g118
tp146
a(I0
g120
tp147
a(I1
g118
tp148
a(I2
g120
tp149
a(I3
g118
tp150
a(I0
g120
tp151
a(I1
g118
tp152
a(I2
g120
tp153
a(I3
g118
tp154
a(I0
g120
tp155
a(I1
g118
tp156
a(I2
g120
tp157
a(I3
g118
tp158
a(I0
g120
tp159
a(I1
g118
tp160
a(I2
g120
tp161
a(I3
g118
tp162
a(I0
g120
tp163
a(I1
g118
tp164
a(I2
g120
tp165
a(I3
g118
tp166
a(I0
g120
tp167
a(I1
S'West'
p168
tp169
a(I2
g120
tp170
a(I3
g118
tp171
a(I0
S'East'
p172
tp173
a(I1
g168
tp174
a(I2
g172
tp175
a(I3
g168
tp176
a(I0
g172
tp177
a(I1
g120
tp178
a(I2
g172
tp179
a(I3
g168
tp180
a(I0
g118
tp181
a(I1
g120
tp182
a(I2
g118
tp183
a(I3
g120
tp184
a(I0
g118
tp185
a(I1
g120
tp186
a(I2
g118
tp187
a(I3
g120
tp188
a(I0
g118
tp189
a(I1
g120
tp190
a(I2
g118
tp191
a(I3
g120
tp192
a(I0
g118
tp193
a(I1
g168
tp194
a(I2
g118
tp195
a(I3
g120
tp196
a(I0
g172
tp197
a(I1
g168
tp198
a(I2
g172
tp199
a(I3
g168
tp200
a(I0
g118
tp201
a(I1
g168
tp202
a(I2
g118
tp203
a(I3
g120
tp204
a(I0
g118
tp205
a(I1
g118
tp206
a(I2
g118
tp207
a(I3
g120
tp208
a(I0
g118
tp209
a(I1
g118
tp210
a(I2
g118
tp211
a(I3
g120
tp212
a(I0
g118
tp213
a(I1
g118
tp214
a(I2
g118
tp215
a(I3
g168
tp216
a(I0
g172
tp217
a(I1
g168
tp218
a(I2
g172
tp219
a(I3
g120
tp220
a(I0
g118
tp221
a(I1
g168
tp222
a(I2
g118
tp223
a(I3
g120
tp224
a(I0
g172
tp225
a(I1
g168
tp226
a(I2
g172
tp227
a(I3
g168
tp228
a(I0
g172
tp229
a(I1
g168
tp230
a(I2
g172
tp231
a(I3
g168
tp232
a(I0
g120
tp233
a(I1
g168
tp234
a(I2
g168
tp235
a(I3
g118
tp236
a(I0
g172
tp237
a(I1
g168
tp238
a(I2
g168
tp239
a(I3
g168
tp240
a(I0
g172
tp241
a(I1
g120
tp242
a(I2
g172
tp243
a(I3
g168
tp244
a(I0
g172
tp245
a(I1
g120
tp246
a(I2
g172
tp247
a(I3
g168
tp248
a(I0
g172
tp249
a(I1
g120
tp250
a(I2
g168
tp251
a(I3
g168
tp252
a(I0
g172
tp253
a(I1
g120
tp254
a(I2
g168
tp255
a(I3
g168
tp256
a(I0
g120
tp257
a(I1
g120
tp258
a(I2
g172
tp259
a(I3
g168
tp260
a(I0
g172
tp261
a(I1
g168
tp262
a(I2
g172
tp263
a(I3
g118
tp264
a(I0
g172
tp265
a(I1
g168
tp266
a(I2
g168
tp267
a(I3
g168
tp268
a(I0
g172
tp269
a(I1
g118
tp270
a(I2
g168
tp271
a(I3
g168
tp272
a(I0
g172
tp273
a(I1
g120
tp274
a(I2
g172
tp275
a(I3
g168
tp276
a(I0
g168
tp277
a(I1
g168
tp278
a(I2
g172
tp279
a(I3
g172
tp280
a(I0
g168
tp281
a(I1
S'Stop'
p282
tp283
a(I2
g168
tp284
a(I3
g172
tp285
a(I0
g172
tp286
a(I1
g172
tp287
a(I2
g168
tp288
a(I3
g172
tp289
a(I0
g172
tp290
a(I1
g168
tp291
a(I2
g172
tp292
a(I3
g120
tp293
a(I0
g120
tp294
a(I1
g282
tp295
a(I2
g172
tp296
a(I3
g120
tp297
a(I0
g120
tp298
a(I1
g172
tp299
a(I2
g168
tp300
a(I3
g120
tp301
a(I0
g120
tp302
a(I1
g118
tp303
a(I2
g168
tp304
a(I3
g172
tp305
a(I0
g120
tp306
a(I1
g282
tp307
a(I2
g172
tp308
a(I3
g172
tp309
a(I0
g120
tp310
a(I1
g282
tp311
a(I2
g172
tp312
a(I3
g120
tp313
a(I0
g120
tp314
a(I1
g282
tp315
a(I2
g168
tp316
a(I3
g120
tp317
a(I0
g120
tp318
a(I1
g282
tp319
a(I2
g168
tp320
a(I3
g168
tp321
a(I0
g120
tp322
a(I1
g282
tp323
a(I2
g172
tp324
a(I3
g168
tp325
a(I0
g120
tp326
a(I1
g282
tp327
a(I2
g172
tp328
a(I3
g120
tp329
a(I0
g120
tp330
a(I1
g282
tp331
a(I2
g168
tp332
a(I3
g168
tp333
a(I0
g120
tp334
a(I1
g282
tp335
a(I2
g168
tp336
a(I3
g168
tp337
a(I0
g120
tp338
a(I1
g282
tp339
a(I2
g172
tp340
a(I3
g168
tp341
a(I0
g172
tp342
a(I1
g282
tp343
a(I2
g172
tp344
a(I3
g168
tp345
a(I0
g172
tp346
a(I1
g282
tp347
a(I2
g168
tp348
a(I3
g168
tp349
a(I0
g118
tp350
a(I1
g282
tp351
a(I2
g168
tp352
a(I3
g168
tp353
a(I0
g118
tp354
a(I1
g282
tp355
a(I2
g172
tp356
a(I3
g118
tp357
a(I0
g118
tp358
a(I1
g282
tp359
a(I2
g172
tp360
a(I3
g168
tp361
a(I0
g118
tp362
a(I1
g282
tp363
a(I2
g168
tp364
a(I3
g168
tp365
a(I0
g172
tp366
a(I1
g282
tp367
a(I2
g168
tp368
a(I3
g120
tp369
a(I0
g172
tp370
a(I1
g282
tp371
a(I2
g172
tp372
a(I3
g118
tp373
a(I0
g172
tp374
a(I1
g282
tp375
a(I2
g172
tp376
a(I3
g168
tp377
a(I0
g120
tp378
a(I1
g282
tp379
a(I2
g168
tp380
a(I3
g168
tp381
a(I0
g120
tp382
a(I1
g282
tp383
a(I2
g168
tp384
a(I3
g168
tp385
a(I0
g120
tp386
a(I1
g282
tp387
a(I2
g172
tp388
a(I3
g168
tp389
a(I0
g172
tp390
a(I1
g282
tp391
a(I2
g172
tp392
a(I3
g118
tp393
a(I0
g172
tp394
a(I1
g282
tp395
a(I2
g168
tp396
a(I3
g118
tp397
a(I0
g172
tp398
a(I1
g282
tp399
a(I2
g168
tp400
a(I3
g118
tp401
a(I0
g172
tp402
a(I1
g282
tp403
a(I2
g172
tp404
a(I3
g118
tp405
a(I0
g172
tp406
a(I1
g282
tp407
a(I2
g172
tp408
a(I3
g118
tp409
a(I0
g172
tp410
a(I1
g282
tp411
a(I2
g168
tp412
a(I3
g118
tp413
a(I0
g118
tp414
a(I1
g282
tp415
a(I2
g168
tp416
a(I3
g118
tp417
a(I0
g172
tp418
a(I1
g282
tp419
a(I2
g172
tp420
a(I3
g118
tp421
a(I0
g172
tp422
a(I1
g282
tp423
a(I2
g172
tp424
a(I3
g118
tp425
a(I0
g172
tp426
a(I1
g282
tp427
a(I2
g168
tp428
a(I3
g118
tp429
a(I0
g118
tp430
a(I1
g282
tp431
a(I2
g168
tp432
a(I3
g118
tp433
a(I0
g172
tp434
a(I1
g282
tp435
a(I2
g172
tp436
a(I3
g118
tp437
a(I0
g118
tp438
a(I1
g120
tp439
a(I2
g172
tp440
a(I3
g118
tp441
a(I0
g172
tp442
a(I1
g172
tp443
a(I2
g168
tp444
a(I3
g168
tp445
a(I0
g172
tp446
a(I1
g120
tp447
a(I2
g168
tp448
a(I3
g168
tp449
a(I0
g118
tp450
a(I1
g120
tp451
a(I2
g172
tp452
a(I3
g120
tp453
a(I0
g120
tp454
a(I1
g282
tp455
a(I2
g172
tp456
a(I3
g120
tp457
a(I0
g120
tp458
a(I1
g118
tp459
a(I2
g168
tp460
a(I3
g120
tp461
a(I0
g120
tp462
a(I1
g168
tp463
a(I2
g168
tp464
a(I3
g120
tp465
a(I0
g120
tp466
a(I1
g118
tp467
a(I2
g172
tp468
a(I3
g168
tp469
a(I0
g120
tp470
a(I1
g118
tp471
a(I2
g172
tp472
a(I3
g120
tp473
a(I0
g120
tp474
a(I1
g282
tp475
a(I2
g168
tp476
a(I3
g120
tp477
a(I0
g120
tp478
a(I1
g282
tp479
a(I2
g168
tp480
a(I3
g120
tp481
a(I0
g120
tp482
a(I1
g282
tp483
a(I2
g172
tp484
a(I3
g168
tp485
a(I0
g120
tp486
a(I1
g282
tp487
a(I2
g172
tp488
a(I3
g120
tp489
a(I0
g120
tp490
a(I1
g282
tp491
a(I2
g168
tp492
a(I3
g120
tp493
a(I0
g120
tp494
a(I1
g282
tp495
a(I2
g168
tp496
a(I3
g168
tp497
a(I0
g120
tp498
a(I1
g282
tp499
a(I2
g172
tp500
a(I3
g168
tp501
a(I0
g172
tp502
a(I1
g282
tp503
a(I2
g172
tp504
a(I3
g118
tp505
a(I0
g172
tp506
a(I1
g282
tp507
a(I2
g168
tp508
a(I3
g168
tp509
a(I0
g118
tp510
a(I1
g282
tp511
a(I2
g168
tp512
a(I3
g168
tp513
a(I0
g118
tp514
a(I1
g282
tp515
a(I2
g172
tp516
a(I3
g168
tp517
a(I0
g118
tp518
a(I1
g282
tp519
a(I2
g172
tp520
a(I3
g168
tp521
a(I0
g118
tp522
a(I1
g282
tp523
a(I2
g168
tp524
a(I3
g168
tp525
a(I0
g172
tp526
a(I1
g282
tp527
a(I2
g168
tp528
a(I3
g168
tp529
a(I0
g172
tp530
a(I1
g282
tp531
a(I2
g172
tp532
a(I3
g118
tp533
a(I0
g172
tp534
a(I1
g282
tp535
a(I2
g172
tp536
a(I3
g168
tp537
a(I0
g120
tp538
a(I1
g282
tp539
a(I2
g168
tp540
a(I3
g168
tp541
a(I0
g120
tp542
a(I1
g282
tp543
a(I2
g168
tp544
a(I3
g168
tp545
a(I0
g120
tp546
a(I1
g282
tp547
a(I2
g172
tp548
a(I3
g168
tp549
a(I0
g172
tp550
a(I1
g282
tp551
a(I2
g172
tp552
a(I3
g120
tp553
a(I0
g172
tp554
a(I1
g282
tp555
a(I2
g168
tp556
a(I3
g118
tp557
a(I0
g172
tp558
a(I1
g282
tp559
a(I2
g168
tp560
a(I3
g168
tp561
a(I0
g172
tp562
a(I1
g282
tp563
a(I2
g172
tp564
a(I3
g168
tp565
a(I0
g172
tp566
a(I1
g282
tp567
a(I2
g172
tp568
a(I3
g120
tp569
a(I0
g172
tp570
a(I1
g282
tp571
a(I2
g120
tp572
a(I3
g118
tp573
a(I0
g118
tp574
a(I1
g282
tp575
a(I2
g172
tp576
a(I3
g118
tp577
a(I0
g172
tp578
a(I1
g282
tp579
a(I2
g172
tp580
a(I3
g118
tp581
a(I0
g172
tp582
a(I1
g282
tp583
a(I2
g168
tp584
a(I3
g168
tp585
a(I0
g118
tp586
a(I1
g282
tp587
a(I2
g168
tp588
a(I3
g168
tp589
a(I0
g172
tp590
a(I1
g282
tp591
a(I2
g118
tp592
a(I3
g168
tp593
a(I0
g172
tp594
a(I1
g282
tp595
a(I2
g168
tp596
a(I3
g168
tp597
a(I0
g118
tp598
a(I1
g120
tp599
a(I2
g172
tp600
a(I3
g168
tp601
a(I0
g172
tp602
a(I1
g172
tp603
a(I2
g120
tp604
a(I3
g118
tp605
a(I0
g172
tp606
a(I1
g120
tp607
a(I2
g118
tp608
a(I3
g118
tp609
a(I0
g118
tp610
a(I1
g120
tp611
a(I2
g168
tp612
a(I3
g118
tp613
a(I0
g120
tp614
a(I1
g282
tp615
a(I2
g168
tp616
a(I3
g118
tp617
a(I0
g120
tp618
a(I1
g118
tp619
a(I2
g172
tp620
a(I3
g118
tp621
a(I0
g120
tp622
a(I1
g118
tp623
a(I2
g172
tp624
a(I3
g118
tp625
a(I0
g120
tp626
a(I1
g168
tp627
a(I2
g168
tp628
a(I3
g118
tp629
a(I0
g120
tp630
a(I1
g118
tp631
a(I2
g168
tp632
a(I3
g118
tp633
a(I0
g120
tp634
a(I1
g282
tp635
a(I2
g172
tp636
a(I3
g118
tp637
a(I0
g120
tp638
a(I1
g282
tp639
a(I2
g172
tp640
a(I3
g118
tp641
a(I0
g120
tp642
a(I1
g282
tp643
a(I2
g168
tp644
a(I3
g118
tp645
a(I0
g120
tp646
a(I1
g282
tp647
a(I2
g168
tp648
a(I3
g118
tp649
a(I0
g120
tp650
a(I1
g282
tp651
a(I2
g172
tp652
a(I3
g118
tp653
a(I0
g120
tp654
a(I1
g282
tp655
a(I2
g172
tp656
a(I3
g168
tp657
a(I0
g120
tp658
a(I1
g282
tp659
a(I2
g168
tp660
a(I3
g168
tp661
a(I0
g172
tp662
a(I1
g282
tp663
a(I2
g168
tp664
a(I3
g120
tp665
a(I0
g172
tp666
a(I1
g282
tp667
a(I2
g172
tp668
a(I3
g120
tp669
a(I0
g118
tp670
a(I1
g282
tp671
a(I2
g172
tp672
a(I3
g120
tp673
a(I0
g118
tp674
a(I1
g282
tp675
a(I2
g168
tp676
a(I3
g120
tp677
a(I0
g118
tp678
a(I1
g282
tp679
a(I2
g168
tp680
a(I3
g168
tp681
a(I0
g118
tp682
a(I1
g282
tp683
a(I2
g172
tp684
a(I3
g168
tp685
a(I0
g172
tp686
a(I1
g282
tp687
a(I2
g172
tp688
a(I3
g168
tp689
a(I0
g172
tp690
a(I1
g282
tp691
a(I2
g168
tp692
a(I3
g118
tp693
a(I0
g172
tp694
a(I1
g282
tp695
a(I2
g168
tp696
a(I3
g118
tp697
a(I0
g120
tp698
a(I1
g282
tp699
a(I2
g172
tp700
a(I3
g118
tp701
a(I0
g120
tp702
a(I1
g282
tp703
a(I2
g172
tp704
a(I3
g168
tp705
a(I0
g120
tp706
a(I1
g282
tp707
a(I2
g168
tp708
a(I3
g168
tp709
a(I0
g172
tp710
a(I1
g282
tp711
a(I2
g168
tp712
a(I3
g168
tp713
a(I0
g172
tp714
a(I1
g282
tp715
a(I2
g172
tp716
a(I3
g168
tp717
a(I0
g172
tp718
a(I1
g282
tp719
a(I2
g172
tp720
a(I3
g168
tp721
a(I0
g172
tp722
a(I1
g282
tp723
a(I2
g168
tp724
a(I3
g168
tp725
a(I0
g172
tp726
a(I1
g282
tp727
a(I2
g168
tp728
a(I3
g118
tp729
a(I0
g172
tp730
a(I1
g282
tp731
a(I2
g172
tp732
a(I3
g168
tp733
a(I0
g118
tp734
a(I1
g282
tp735
a(I2
g172
tp736
a(I3
g168
tp737
a(I0
g172
tp738
a(I1
g282
tp739
a(I2
g168
tp740
a(I3
g168
tp741
a(I0
g172
tp742
a(I1
g282
tp743
a(I2
g168
tp744
a(I3
g168
tp745
a(I0
g172
tp746
a(I1
g282
tp747
a(I2
g172
tp748
a(I3
g168
tp749
a(I0
g118
tp750
a(I1
g282
tp751
a(I2
g172
tp752
a(I3
g168
tp753
a(I0
g172
tp754
a(I1
g282
tp755
a(I2
g168
tp756
a(I3
g120
tp757
a(I0
g118
tp758
a(I1
g120
tp759
a(I2
g168
tp760
a(I3
g168
tp761
a(I0
g172
tp762
a(I1
g120
tp763
a(I2
g172
tp764
a(I3
g168
tp765
a(I0
g172
tp766
a(I1
g172
tp767
a(I2
g172
tp768
a(I3
g120
tp769
a(I0
g118
tp770
a(I1
g120
tp771
a(I2
g168
tp772
a(I3
g168
tp773
a(I0
g120
tp774
a(I1
g282
tp775
a(I2
g168
tp776
a(I3
g172
tp777
a(I0
g120
tp778
a(I1
g118
tp779
a(I2
g172
tp780
a(I3
g118
tp781
a(I0
g120
tp782
a(I1
g118
tp783
a(I2
g172
tp784
a(I3
g118
tp785
a(I0
g120
tp786
a(I1
g168
tp787
a(I2
g168
tp788
a(I3
g168
tp789
a(I0
g120
tp790
a(I1
g118
tp791
a(I2
g168
tp792
a(I3
g168
tp793
a(I0
g120
tp794
a(I1
g282
tp795
a(I2
g172
tp796
a(I3
g168
tp797
a(I0
g120
tp798
a(I1
g282
tp799
a(I2
g172
tp800
a(I3
g168
tp801
a(I0
g120
tp802
a(I1
g282
tp803
a(I2
g168
tp804
a(I3
g120
tp805
a(I0
g120
tp806
a(I1
g282
tp807
a(I2
g168
tp808
a(I3
g120
tp809
a(I0
g120
tp810
a(I1
g282
tp811
a(I2
g118
tp812
a(I3
g172
tp813
a(I0
g120
tp814
a(I1
g282
tp815
a(I2
g118
tp816
a(I3
g168
tp817
a(I0
g120
tp818
a(I1
g282
tp819
a(I2
g118
tp820
a(I3
g118
tp821
a(I0
g172
tp822
a(I1
g282
tp823
a(I2
g120
tp824
a(I3
g118
tp825
a(I0
g172
tp826
a(I1
g282
tp827
a(I2
g120
tp828
a(I3
g172
tp829
a(I0
g118
tp830
a(I1
g282
tp831
a(I2
g120
tp832
a(I3
g168
tp833
a(I0
g118
tp834
a(I1
g282
tp835
a(I2
g172
tp836
a(I3
g120
tp837
a(I0
g118
tp838
a(I1
g282
tp839
a(I2
g168
tp840
a(I3
g168
tp841
a(I0
g118
tp842
a(I1
g282
tp843
a(I2
g118
tp844
a(I3
g168
tp845
a(I0
g172
tp846
a(I1
g282
tp847
a(I2
g118
tp848
a(I3
g120
tp849
a(I0
g172
tp850
a(I1
g282
tp851
a(I2
g120
tp852
a(I3
g118
tp853
a(I0
g172
tp854
a(I1
g282
tp855
a(I2
g120
tp856
a(I3
g118
tp857
a(I0
g120
tp858
a(I1
g282
tp859
a(I2
g172
tp860
a(I3
g118
tp861
a(I0
g120
tp862
a(I1
g282
tp863
a(I2
g172
tp864
a(I3
g118
tp865
a(I0
g120
tp866
a(I1
g282
tp867
a(I2
g168
tp868
a(I3
g118
tp869
a(I0
g172
tp870
a(I1
g282
tp871
a(I2
g168
tp872
a(I3
g118
tp873
a(I0
g172
tp874
a(I1
g282
tp875
a(I2
g172
tp876
a(I3
g118
tp877
a(I0
g172
tp878
a(I1
g282
tp879
a(I2
g172
tp880
a(I3
g118
tp881
a(I0
g172
tp882
a(I1
g282
tp883
a(I2
g168
tp884
a(I3
g118
tp885
a(I0
g172
tp886
a(I1
g282
tp887
a(I2
g168
tp888
a(I3
g118
tp889
a(I0
g172
tp890
a(I1
g282
tp891
a(I2
g172
tp892
a(I3
g118
tp893
a(I0
g118
tp894
a(I1
g282
tp895
a(I2
g172
tp896
a(I3
g118
tp897
a(I0
g172
tp898
a(I1
g282
tp899
a(I2
g168
tp900
a(I3
g118
tp901
a(I0
g172
tp902
a(I1
g282
tp903
a(I2
g168
tp904
a(I3
g168
tp905
a(I0
g118
tp906
a(I1
g282
tp907
a(I2
g172
tp908
a(I3
g168
tp909
a(I0
g172
tp910
a(I1
g282
tp911
a(I2
g172
tp912
a(I3
g120
tp913
a(I0
g172
tp914
a(I1
g282
tp915
a(I2
g168
tp916
a(I3
g120
tp917
a(I0
g118
tp918
a(I1
g120
tp919
a(I2
g168
tp920
a(I3
g120
tp921
a(I0
g172
tp922
a(I1
g120
tp923
a(I2
g172
tp924
a(I3
g120
tp925
a(I0
g172
tp926
a(I1
g172
tp927
a(I2
g172
tp928
a(I3
g168
tp929
a(I0
g118
tp930
a(I1
g120
tp931
a(I2
g168
tp932
a(I3
g168
tp933
a(I0
g120
tp934
a(I1
g282
tp935
a(I2
g168
tp936
a(I3
g168
tp937
a(I0
g120
tp938
a(I1
g118
tp939
a(I2
g172
tp940
a(I3
g118
tp941
a(I0
g120
tp942
a(I1
g168
tp943
a(I2
g172
tp944
a(I3
g118
tp945
a(I0
g120
tp946
a(I1
g118
tp947
a(I2
g168
tp948
a(I3
g118
tp949
a(I0
g120
tp950
a(I1
g118
tp951
a(I2
g168
tp952
a(I3
g168
tp953
a(I0
g120
tp954
a(I1
g282
tp955
a(I2
g172
tp956
a(I3
g168
tp957
a(I0
g120
tp958
a(I1
g282
tp959
a(I2
g172
tp960
a(I3
g168
tp961
a(I0
g120
tp962
a(I1
g282
tp963
a(I2
g168
tp964
a(I3
g168
tp965
a(I0
g120
tp966
a(I1
g282
tp967
a(I2
g168
tp968
a(I3
g168
tp969
a(I0
g120
tp970
a(I1
g282
tp971
a(I2
g172
tp972
a(I3
g168
tp973
a(I0
g120
tp974
a(I1
g282
tp975
a(I2
g172
tp976
a(I3
g120
tp977
a(I0
g120
tp978
a(I1
g282
tp979
a(I2
g168
tp980
a(I3
g168
tp981
a(I0
g172
tp982
a(I1
g282
tp983
a(I2
g168
tp984
a(I3
g168
tp985
a(I0
g172
tp986
a(I1
g282
tp987
a(I2
g172
tp988
a(I3
g168
tp989
a(I0
g118
tp990
a(I1
g282
tp991
a(I2
g172
tp992
a(I3
g120
tp993
a(I0
g118
tp994
a(I1
g282
tp995
a(I2
g168
tp996
a(I3
g168
tp997
a(I0
g118
tp998
a(I1
g282
tp999
a(I2
g168
tp1000
a(I3
g120
tp1001
a(I0
g118
tp1002
a(I1
g282
tp1003
a(I2
g172
tp1004
a(I3
g168
tp1005
a(I0
g172
tp1006
a(I1
g282
tp1007
a(I2
g172
tp1008
a(I3
g168
tp1009
a(I0
g172
tp1010
a(I1
g282
tp1011
a(I2
g168
tp1012
a(I3
g120
tp1013
a(I0
g172
tp1014
a(I1
g282
tp1015
a(I2
g168
tp1016
a(I3
g168
tp1017
a(I0
g120
tp1018
a(I1
g282
tp1019
a(I2
g172
tp1020
a(I3
g168
tp1021
a(I0
g120
tp1022
a(I1
g282
tp1023
a(I2
g172
tp1024
a(I3
g168
tp1025
a(I0
g120
tp1026
a(I1
g282
tp1027
a(I2
g120
tp1028
a(I3
g168
tp1029
a(I0
g172
tp1030
a(I1
g282
tp1031
a(I2
g172
tp1032
a(I3
g168
tp1033
a(I0
g172
tp1034
a(I1
g282
tp1035
a(I2
g168
tp1036
a(I3
g118
tp1037
a(I0
g172
tp1038
a(I1
g282
tp1039
a(I2
g118
tp1040
a(I3
g118
tp1041
a(I0
g172
tp1042
a(I1
g282
tp1043
a(I2
g168
tp1044
a(I3
g118
tp1045
a(I0
g172
tp1046
a(I1
g282
tp1047
a(I2
g168
tp1048
a(I3
g118
tp1049
a(I0
g172
tp1050
a(I1
g282
tp1051
a(I2
g172
tp1052
a(I3
g118
tp1053
a(I0
g118
tp1054
a(I1
g282
tp1055
a(I2
g172
tp1056
a(I3
g118
tp1057
a(I0
g172
tp1058
a(I1
g282
tp1059
a(I2
g168
tp1060
a(I3
g118
tp1061
a(I0
g172
tp1062
a(I1
g282
tp1063
a(I2
g168
tp1064
a(I3
g118
tp1065
a(I0
g118
tp1066
a(I1
g282
tp1067
a(I2
g172
tp1068
a(I3
g118
tp1069
a(I0
g172
tp1070
a(I1
g282
tp1071
a(I2
g172
tp1072
a(I3
g118
tp1073
a(I0
g172
tp1074
a(I1
g282
tp1075
a(I2
g168
tp1076
a(I3
g118
tp1077
a(I0
g118
tp1078
a(I1
g120
tp1079
a(I2
g168
tp1080
a(I3
g118
tp1081
a(I0
g172
tp1082
a(I1
g172
tp1083
a(I2
g172
tp1084
a(I3
g118
tp1085
a(I0
g172
tp1086
a(I1
g120
tp1087
a(I2
g172
tp1088
a(I3
g168
tp1089
a(I0
g118
tp1090
a(I1
g120
tp1091
a(I2
g168
tp1092
a(I3
g168
tp1093
a(I0
g120
tp1094
a(I1
g282
tp1095
a(I2
g168
tp1096
a(I3
g120
tp1097
a(I0
g120
tp1098
a(I1
g118
tp1099
a(I2
g172
tp1100
a(I3
g120
tp1101
a(I0
g120
tp1102
a(I1
g168
tp1103
a(I2
g172
tp1104
a(I3
g120
tp1105
a(I0
g120
tp1106
a(I1
g118
tp1107
a(I2
g168
tp1108
a(I3
g120
tp1109
a(I0
g120
tp1110
a(I1
g118
tp1111
a(I2
g168
tp1112
a(I3
g168
tp1113
a(I0
g120
tp1114
a(I1
g282
tp1115
a(I2
g172
tp1116
a(I3
g168
tp1117
a(I0
g120
tp1118
a(I1
g282
tp1119
a(I2
g172
tp1120
a(I3
g168
tp1121
a(I0
g120
tp1122
a(I1
g282
tp1123
a(I2
g168
tp1124
a(I3
g118
tp1125
a(I0
g120
tp1126
a(I1
g282
tp1127
a(I2
g168
tp1128
a(I3
g118
tp1129
a(I0
g120
tp1130
a(I1
g282
tp1131
a(I2
g172
tp1132
a(I3
g118
tp1133
a(I0
g120
tp1134
a(I1
g282
tp1135
a(I2
g172
tp1136
a(I3
g168
tp1137
a(I0
g120
tp1138
a(I1
g282
tp1139
a(I2
g168
tp1140
a(I3
g168
tp1141
a(I0
g172
tp1142
a(I1
g282
tp1143
a(I2
g168
tp1144
a(I3
g168
tp1145
a(I0
g172
tp1146
a(I1
g282
tp1147
a(I2
g172
tp1148
a(I3
g168
tp1149
a(I0
g118
tp1150
a(I1
g282
tp1151
a(I2
g172
tp1152
a(I3
g168
tp1153
a(I0
g118
tp1154
a(I1
g282
tp1155
a(I2
g168
tp1156
a(I3
g168
tp1157
a(I0
g118
tp1158
a(I1
g282
tp1159
a(I2
g168
tp1160
a(I3
g120
tp1161
a(I0
g118
tp1162
a(I1
g282
tp1163
a(I2
g172
tp1164
a(I3
g168
tp1165
a(I0
g172
tp1166
a(I1
g282
tp1167
a(I2
g172
tp1168
a(I3
g168
tp1169
a(I0
g172
tp1170
a(I1
g282
tp1171
a(I2
g168
tp1172
a(I3
g168
tp1173
a(I0
g172
tp1174
a(I1
g282
tp1175
a(I2
g168
tp1176
a(I3
g120
tp1177
a(I0
g120
tp1178
a(I1
g282
tp1179
a(I2
g172
tp1180
a(I3
g168
tp1181
a(I0
g120
tp1182
a(I1
g282
tp1183
a(I2
g172
tp1184
a(I3
g120
tp1185
a(I0
g120
tp1186
a(I1
g282
tp1187
a(I2
g168
tp1188
a(I3
g168
tp1189
a(I0
g172
tp1190
a(I1
g282
tp1191
a(I2
g168
tp1192
a(I3
g168
tp1193
a(I0
g172
tp1194
a(I1
g282
tp1195
a(I2
g172
tp1196
a(I3
g120
tp1197
a(I0
g172
tp1198
a(I1
g282
tp1199
a(I2
g172
tp1200
a(I3
g168
tp1201
a(I0
g172
tp1202
a(I1
g282
tp1203
a(I2
g168
tp1204
a(I3
g168
tp1205
a(I0
g172
tp1206
a(I1
g282
tp1207
a(I2
g168
tp1208
a(I3
g168
tp1209
a(I0
g172
tp1210
a(I1
g282
tp1211
a(I2
g172
tp1212
a(I3
g120
tp1213
a(I0
g118
tp1214
a(I1
g282
tp1215
a(I2
g172
tp1216
a(I3
g118
tp1217
a(I0
g172
tp1218
a(I1
g282
tp1219
a(I2
g120
tp1220
a(I3
g168
tp1221
a(I0
g172
tp1222
a(I1
g282
tp1223
a(I2
g172
tp1224
a(I3
g168
tp1225
a(I0
g118
tp1226
a(I1
g282
tp1227
a(I2
g168
tp1228
a(I3
g118
tp1229
a(I0
g172
tp1230
a(I1
g282
tp1231
a(I2
g118
tp1232
a(I3
g118
tp1233
a(I0
g172
tp1234
a(I1
g282
tp1235
a(I2
g168
tp1236
a(I3
g118
tp1237
a(I0
g118
tp1238
a(I1
g120
tp1239
a(I2
g168
tp1240
a(I3
g118
tp1241
a(I0
g172
tp1242
a(I1
g172
tp1243
a(I2
g172
tp1244
a(I3
g118
tp1245
a(I0
g172
tp1246
a(I1
g120
tp1247
a(I2
g172
tp1248
a(I3
g118
tp1249
a(I0
g118
tp1250
a(I1
g120
tp1251
a(I2
g168
tp1252
a(I3
g118
tp1253
a(I0
g120
tp1254
a(I1
g282
tp1255
a(I2
g168
tp1256
a(I3
g118
tp1257
a(I0
g120
tp1258
a(I1
g118
tp1259
a(I2
g172
tp1260
a(I3
g118
tp1261
a(I0
g120
tp1262
a(I1
g118
tp1263
a(I2
g172
tp1264
a(I3
g118
tp1265
a(I0
g120
tp1266
a(I1
g168
tp1267
a(I2
g168
tp1268
a(I3
g118
tp1269
a(I0
g120
tp1270
a(I1
g118
tp1271
a(I2
g168
tp1272
a(I3
g118
tp1273
a(I0
g120
tp1274
a(I1
g282
tp1275
a(I2
g172
tp1276
a(I3
g118
tp1277
a(I0
g120
tp1278
a(I1
g282
tp1279
a(I2
g172
tp1280
a(I3
g168
tp1281
a(I0
g120
tp1282
a(I1
g282
tp1283
a(I2
g168
tp1284
a(I3
g168
tp1285
a(I0
g120
tp1286
a(I1
g282
tp1287
a(I2
g168
tp1288
a(I3
g120
tp1289
a(I0
g120
tp1290
a(I1
g282
tp1291
a(I2
g172
tp1292
a(I3
g120
tp1293
a(I0
g120
tp1294
a(I1
g282
tp1295
a(I2
g172
tp1296
a(I3
g120
tp1297
a(I0
g120
tp1298
a(I1
g282
tp1299
a(I2
g168
tp1300
a(I3
g120
tp1301
a(I0
g172
tp1302
a(I1
g282
tp1303
a(I2
g168
tp1304
a(I3
g168
tp1305
a(I0
g172
tp1306
a(I1
g282
tp1307
a(I2
g172
tp1308
a(I3
g120
tp1309
a(I0
g118
tp1310
a(I1
g282
tp1311
a(I2
g172
tp1312
a(I3
g120
tp1313
a(I0
g118
tp1314
a(I1
g282
tp1315
a(I2
g168
tp1316
a(I3
g120
tp1317
a(I0
g118
tp1318
a(I1
g282
tp1319
a(I2
g168
tp1320
a(I3
g168
tp1321
a(I0
g118
tp1322
asS'length'
p1323
I1200
sS'agents'
p1324
(lp1325
(igame
Agent
p1326
(dp1327
S'index'
p1328
I0
sba(igame
Agent
p1329
(dp1330
g1328
I0
sba(igame
Agent
p1331
(dp1332
g1328
I0
sba(igame
Agent
p1333
(dp1334
g1328
I0
sbasS'redTeamName'
p1335
S'TeamSalt'
p1336
s.